target datalayout = "e-m:e-p270:32:32-p271:32:32-p272:64:64-i64:64-i128:128-f80:128-n8:16:32:64-S128"
target triple = "x86_64-pc-linux-gnu"

%struct.H5O_t = type { %struct.H5C_cache_entry_t, i64, i64, i8, i64, i8, i32, i8, i8, i64, i64, i64, i64, i32, i32, i64, i64, ptr, i64, i64, i64, i64, ptr, i8, ptr }
%struct.H5C_cache_entry_t = type { ptr, i64, i64, ptr, i8, ptr, i8, i8, i8, i8, i32, i8, i8, i8, i8, i8, i32, ptr, i32, i32, i32, i32, i32, i8, i8, ptr, ptr, ptr, ptr, ptr, ptr, i8, i32, i8, i64, ptr, i64, i64, i32, i8, i32, i32, i8, ptr, ptr, ptr }
%struct.H5O_chunk_t = type { i64, i64, i64, ptr, ptr }

@H5O_init_g = external global i8, align 1
@H5_libterm_g = external global i8, align 1
@.str = private unnamed_addr constant [102 x i8] c"generated/home/dtcxzyw/WorkSpace/Projects/compilers/llvm-opt-benchmark/bench/hdf5/hdf5/src/H5Oflush.c\00", align 1
@H5E_OHDR_g = external global i64, align 8
@__func__.H5O__oh_tag = private unnamed_addr constant [12 x i8] c"H5O__oh_tag\00", align 1
@H5E_CANTPROTECT_g = external global i64, align 8
@.str.22 = private unnamed_addr constant [41 x i8] c"unable to protect object's object header\00", align 1
@H5E_CANTGET_g = external global i64, align 8
@.str.23 = private unnamed_addr constant [39 x i8] c"unable to get address of object header\00", align 1
@H5E_CANTUNPROTECT_g = external global i64, align 8
@.str.24 = private unnamed_addr constant [32 x i8] c"unable to release object header\00", align 1

; Function Attrs: nounwind uwtable
define internal i32 @H5O__oh_tag(ptr noundef %0, ptr noundef %1) #0 {
  %3 = alloca ptr, align 8
  %4 = alloca ptr, align 8
  %5 = alloca ptr, align 8
  %6 = alloca i32, align 4
  %7 = alloca i8, align 1
  store ptr %0, ptr %3, align 8, !tbaa !3
  store ptr %1, ptr %4, align 8, !tbaa !25
  call void @llvm.lifetime.start.p0(i64 8, ptr %5) #4
  store ptr null, ptr %5, align 8, !tbaa !27
  call void @llvm.lifetime.start.p0(i64 4, ptr %6) #4
  store i32 0, ptr %6, align 4, !tbaa !10
  call void @llvm.lifetime.start.p0(i64 1, ptr %7) #4
  store i8 0, ptr %7, align 1, !tbaa !12
  %8 = load i8, ptr @H5O_init_g, align 1, !tbaa !12, !range !14, !noundef !15
  %9 = trunc i8 %8 to i1
  br i1 %9, label %14, label %10

10:                                               ; preds = %2
  %11 = load i8, ptr @H5_libterm_g, align 1, !tbaa !12, !range !14, !noundef !15
  %12 = trunc i8 %11 to i1
  %13 = xor i1 %12, true
  br label %14

14:                                               ; preds = %10, %2
  %15 = phi i1 [ true, %2 ], [ %13, %10 ]
  %16 = xor i1 %15, true
  %17 = xor i1 %16, true
  %18 = zext i1 %17 to i32
  %19 = sext i32 %18 to i64
  %20 = call i64 @llvm.expect.i64(i64 %19, i64 1)
  %21 = icmp ne i64 %20, 0
  br i1 %21, label %22, label %99

22:                                               ; preds = %14
  %23 = load ptr, ptr %3, align 8, !tbaa !3
  %24 = call ptr @H5O_protect(ptr noundef %23, i32 noundef 128, i1 noundef zeroext false)
  store ptr %24, ptr %5, align 8, !tbaa !27
  %25 = icmp eq ptr null, %24
  br i1 %25, label %26, label %45

26:                                               ; preds = %22
  br label %27

27:                                               ; preds = %26
  br label %28

28:                                               ; preds = %27
  br label %29

29:                                               ; preds = %28
  %30 = load i64, ptr @H5E_OHDR_g, align 8, !tbaa !8
  %31 = load i64, ptr @H5E_CANTPROTECT_g, align 8, !tbaa !8
  %32 = call i32 (ptr, ptr, i32, i64, i64, ptr, ...) @H5E_printf_stack(ptr noundef @.str, ptr noundef @__func__.H5O__oh_tag, i32 noundef 154, i64 noundef %30, i64 noundef %31, ptr noundef @.str.22)
  br label %33

33:                                               ; preds = %29
  br label %34

34:                                               ; preds = %33
  store i8 1, ptr %7, align 1, !tbaa !12
  %35 = load i8, ptr %7, align 1, !tbaa !12, !range !14, !noundef !15
  %36 = trunc i8 %35 to i1
  %37 = zext i1 %36 to i8
  store i8 %37, ptr %7, align 1, !tbaa !12
  br label %38

38:                                               ; preds = %34
  br label %39

39:                                               ; preds = %38
  br label %40

40:                                               ; preds = %39
  store i32 -1, ptr %6, align 4, !tbaa !10
  br label %74

41:                                               ; No predecessors!
  br label %42

42:                                               ; preds = %41
  br label %43

43:                                               ; preds = %42
  br label %44

44:                                               ; preds = %43
  br label %45

45:                                               ; preds = %44, %22
  %46 = load ptr, ptr %5, align 8, !tbaa !27
  %47 = getelementptr inbounds nuw %struct.H5O_t, ptr %46, i32 0, i32 22
  %48 = load ptr, ptr %47, align 8, !tbaa !29
  %49 = getelementptr inbounds %struct.H5O_chunk_t, ptr %48, i64 0
  %50 = getelementptr inbounds nuw %struct.H5O_chunk_t, ptr %49, i32 0, i32 0
  %51 = load i64, ptr %50, align 8, !tbaa !40
  %52 = load ptr, ptr %4, align 8, !tbaa !25
  store i64 %51, ptr %52, align 8, !tbaa !8
  %53 = icmp eq i64 -1, %51
  br i1 %53, label %54, label %73

54:                                               ; preds = %45
  br label %55

55:                                               ; preds = %54
  br label %56

56:                                               ; preds = %55
  br label %57

57:                                               ; preds = %56
  %58 = load i64, ptr @H5E_OHDR_g, align 8, !tbaa !8
  %59 = load i64, ptr @H5E_CANTGET_g, align 8, !tbaa !8
  %60 = call i32 (ptr, ptr, i32, i64, i64, ptr, ...) @H5E_printf_stack(ptr noundef @.str, ptr noundef @__func__.H5O__oh_tag, i32 noundef 158, i64 noundef %58, i64 noundef %59, ptr noundef @.str.23)
  br label %61

61:                                               ; preds = %57
  br label %62

62:                                               ; preds = %61
  store i8 1, ptr %7, align 1, !tbaa !12
  %63 = load i8, ptr %7, align 1, !tbaa !12, !range !14, !noundef !15
  %64 = trunc i8 %63 to i1
  %65 = zext i1 %64 to i8
  store i8 %65, ptr %7, align 1, !tbaa !12
  br label %66

66:                                               ; preds = %62
  br label %67

67:                                               ; preds = %66
  br label %68

68:                                               ; preds = %67
  store i32 -1, ptr %6, align 4, !tbaa !10
  br label %74

69:                                               ; No predecessors!
  br label %70

70:                                               ; preds = %69
  br label %71

71:                                               ; preds = %70
  br label %72

72:                                               ; preds = %71
  br label %73

73:                                               ; preds = %72, %45
  br label %74

74:                                               ; preds = %73, %68, %40
  %75 = load ptr, ptr %5, align 8, !tbaa !27
  %76 = icmp ne ptr %75, null
  br i1 %76, label %77, label %98

77:                                               ; preds = %74
  %78 = load ptr, ptr %3, align 8, !tbaa !3
  %79 = load ptr, ptr %5, align 8, !tbaa !27
  %80 = call i32 @H5O_unprotect(ptr noundef %78, ptr noundef %79, i32 noundef 0)
  %81 = icmp slt i32 %80, 0
  br i1 %81, label %82, label %98

82:                                               ; preds = %77
  br label %83

83:                                               ; preds = %82
  br label %84

84:                                               ; preds = %83
  br label %85

85:                                               ; preds = %84
  %86 = load i64, ptr @H5E_OHDR_g, align 8, !tbaa !8
  %87 = load i64, ptr @H5E_CANTUNPROTECT_g, align 8, !tbaa !8
  %88 = call i32 (ptr, ptr, i32, i64, i64, ptr, ...) @H5E_printf_stack(ptr noundef @.str, ptr noundef @__func__.H5O__oh_tag, i32 noundef 163, i64 noundef %86, i64 noundef %87, ptr noundef @.str.24)
  br label %89

89:                                               ; preds = %85
  br label %90

90:                                               ; preds = %89
  store i8 1, ptr %7, align 1, !tbaa !12
  %91 = load i8, ptr %7, align 1, !tbaa !12, !range !14, !noundef !15
  %92 = trunc i8 %91 to i1
  %93 = zext i1 %92 to i8
  store i8 %93, ptr %7, align 1, !tbaa !12
  br label %94

94:                                               ; preds = %90
  br label %95

95:                                               ; preds = %94
  store i32 -1, ptr %6, align 4, !tbaa !10
  br label %96

96:                                               ; preds = %95
  br label %97

97:                                               ; preds = %96
  br label %98

98:                                               ; preds = %97, %77, %74
  br label %99

99:                                               ; preds = %98, %14
  %100 = load i32, ptr %6, align 4, !tbaa !10
  call void @llvm.lifetime.end.p0(i64 1, ptr %7) #4
  call void @llvm.lifetime.end.p0(i64 4, ptr %6) #4
  call void @llvm.lifetime.end.p0(i64 8, ptr %5) #4
  ret i32 %100
}