; Function Attrs: nounwind uwtable
define internal fastcc range(i32 -1, 1) i32 @H5O__oh_tag(ptr noundef %0, ptr noundef nonnull writeonly captures(none) %1) unnamed_addr #0 {
  %3 = load i8, ptr @H5O_init_g, align 1, !tbaa !3, !range !7, !noundef !8
  %4 = trunc nuw i8 %3 to i1
  %5 = load i8, ptr @H5_libterm_g, align 1, !range !7
  %6 = trunc nuw i8 %5 to i1
  %7 = xor i1 %6, true
  %8 = select i1 %4, i1 true, i1 %7
  br i1 %8, label %9, label %32, !prof !9

9:                                                ; preds = %2
  %10 = tail call ptr @H5O_protect(ptr noundef %0, i32 noundef 128, i1 noundef zeroext false) #3
  %11 = icmp eq ptr %10, null
  br i1 %11, label %21, label %12

12:                                               ; preds = %9
  %13 = getelementptr inbounds nuw i8, ptr %10, i64 392
  %14 = load ptr, ptr %13, align 8, !tbaa !20
  %15 = load i64, ptr %14, align 8, !tbaa !32
  store i64 %15, ptr %1, align 8, !tbaa !10
  %16 = icmp eq i64 %15, -1
  br i1 %16, label %17, label %25

17:                                               ; preds = %12
  %18 = load i64, ptr @H5E_OHDR_g, align 8, !tbaa !10
  %19 = load i64, ptr @H5E_CANTGET_g, align 8, !tbaa !10
  %20 = tail call i32 (ptr, ptr, i32, i64, i64, ptr, ...) @H5E_printf_stack(ptr noundef nonnull @.str, ptr noundef nonnull @__func__.H5O__oh_tag, i32 noundef 158, i64 noundef %18, i64 noundef %19, ptr noundef nonnull @.str.23) #3
  br label %25

21:                                               ; preds = %9
  %22 = load i64, ptr @H5E_OHDR_g, align 8, !tbaa !10
  %23 = load i64, ptr @H5E_CANTPROTECT_g, align 8, !tbaa !10
  %24 = tail call i32 (ptr, ptr, i32, i64, i64, ptr, ...) @H5E_printf_stack(ptr noundef nonnull @.str, ptr noundef nonnull @__func__.H5O__oh_tag, i32 noundef 154, i64 noundef %22, i64 noundef %23, ptr noundef nonnull @.str.22) #3
  br label %32

25:                                               ; preds = %12, %17
  %.1.ph = phi i32 [ 0, %12 ], [ -1, %17 ]
  %26 = tail call i32 @H5O_unprotect(ptr noundef %0, ptr noundef nonnull %10, i32 noundef 0) #3
  %27 = icmp slt i32 %26, 0
  br i1 %27, label %28, label %32

28:                                               ; preds = %25
  %29 = load i64, ptr @H5E_OHDR_g, align 8, !tbaa !10
  %30 = load i64, ptr @H5E_CANTUNPROTECT_g, align 8, !tbaa !10
  %31 = tail call i32 (ptr, ptr, i32, i64, i64, ptr, ...) @H5E_printf_stack(ptr noundef nonnull @.str, ptr noundef nonnull @__func__.H5O__oh_tag, i32 noundef 163, i64 noundef %29, i64 noundef %30, ptr noundef nonnull @.str.24) #3
  br label %32

32:                                               ; preds = %21, %25, %28, %2
  %.0 = phi i32 [ -1, %28 ], [ %.1.ph, %25 ], [ -1, %21 ], [ 0, %2 ]
  ret i32 %.0
}